; Function Attrs: mustprogress uwtable
define range(i32 0, 2) i32 @ImfInputReadPixels(ptr noundef nonnull %0, i32 noundef %1, i32 noundef %2) local_unnamed_addr #8 personality ptr @__gxx_personality_v0 {
  invoke void @_ZN7Imf_3_413RgbaInputFile10readPixelsEii(ptr noundef nonnull align 8 dereferenceable(64) %0, i32 noundef %1, i32 noundef %2)
          to label %17 unwind label %4

4:                                                ; preds = %3
  %5 = landingpad { ptr, i32 }
          catch ptr @_ZTISt9exception
  %6 = extractvalue { ptr, i32 } %5, 1
  %7 = tail call i32 @llvm.eh.typeid.for.p0(ptr nonnull @_ZTISt9exception) #24
  %8 = icmp eq i32 %6, %7
  br i1 %8, label %9, label %18

9:                                                ; preds = %4
  %10 = extractvalue { ptr, i32 } %5, 0
  %11 = tail call ptr @__cxa_begin_catch(ptr %10) #24
  %12 = load ptr, ptr %11, align 8, !tbaa !22
  %13 = getelementptr inbounds nuw i8, ptr %12, i64 16
  %14 = load ptr, ptr %13, align 8
  %15 = tail call noundef ptr %14(ptr noundef nonnull align 8 dereferenceable(8) %11) #24
  %16 = tail call ptr @strncpy(ptr noundef nonnull dereferenceable(1) @_ZN12_GLOBAL__N_112errorMessageE, ptr noundef nonnull dereferenceable(1) %15, i64 noundef 1023) #24
  store i8 0, ptr getelementptr inbounds nuw (i8, ptr @_ZN12_GLOBAL__N_112errorMessageE, i64 1023), align 1, !tbaa !15
  tail call void @__cxa_end_catch()
  br label %17

17:                                               ; preds = %3, %9
  %.0 = phi i32 [ 0, %9 ], [ 1, %3 ]
  ret i32 %.0

18:                                               ; preds = %4
  resume { ptr, i32 } %5
}